target datalayout = "e-m:e-p270:32:32-p271:32:32-p272:64:64-i64:64-i128:128-f80:128-n8:16:32:64-S128"
target triple = "x86_64-pc-linux-gnu"

%struct.grpc_resolved_address = type { [128 x i8], i32 }
%struct.sockaddr = type { i16, [14 x i8] }

@.str.12 = private unnamed_addr constant [5 x i8] c"unix\00", align 1
@.str.13 = private unnamed_addr constant [6 x i8] c"vsock\00", align 1
@.str.15 = private unnamed_addr constant [5 x i8] c"ipv4\00", align 1
@.str.16 = private unnamed_addr constant [5 x i8] c"ipv6\00", align 1

; Function Attrs: mustprogress nounwind uwtable
define noundef ptr @_Z28grpc_sockaddr_get_uri_schemePK21grpc_resolved_address(ptr noundef %0) #7 {
  %2 = alloca ptr, align 8
  %3 = alloca ptr, align 8
  %4 = alloca ptr, align 8
  %5 = alloca i32, align 4
  store ptr %0, ptr %3, align 8, !tbaa !3
  call void @llvm.lifetime.start.p0(i64 8, ptr %4) #3
  %6 = load ptr, ptr %3, align 8, !tbaa !3
  %7 = getelementptr inbounds nuw %struct.grpc_resolved_address, ptr %6, i32 0, i32 0
  %8 = getelementptr inbounds [128 x i8], ptr %7, i64 0, i64 0
  store ptr %8, ptr %4, align 8, !tbaa !8
  %9 = load ptr, ptr %4, align 8, !tbaa !8
  %10 = getelementptr inbounds nuw %struct.sockaddr, ptr %9, i32 0, i32 0
  %11 = load i16, ptr %10, align 2, !tbaa !12
  %12 = zext i16 %11 to i32
  switch i32 %12, label %17 [
    i32 2, label %13
    i32 10, label %14
    i32 1, label %15
    i32 40, label %16
  ]

13:                                               ; preds = %1
  store ptr @.str.15, ptr %2, align 8
  store i32 1, ptr %5, align 4
  br label %18

14:                                               ; preds = %1
  store ptr @.str.16, ptr %2, align 8
  store i32 1, ptr %5, align 4
  br label %18

15:                                               ; preds = %1
  store ptr @.str.12, ptr %2, align 8
  store i32 1, ptr %5, align 4
  br label %18

16:                                               ; preds = %1
  store ptr @.str.13, ptr %2, align 8
  store i32 1, ptr %5, align 4
  br label %18

17:                                               ; preds = %1
  store ptr null, ptr %2, align 8
  store i32 1, ptr %5, align 4
  br label %18

18:                                               ; preds = %17, %16, %15, %14, %13
  call void @llvm.lifetime.end.p0(i64 8, ptr %4) #3
  %19 = load ptr, ptr %2, align 8
  ret ptr %19
}