; Function Attrs: mustprogress nofree norecurse nosync nounwind willreturn memory(argmem: read) uwtable
define noundef ptr @_Z28grpc_sockaddr_get_uri_schemePK21grpc_resolved_address(ptr noundef readonly captures(none) %0) local_unnamed_addr #12 {
  %2 = load i16, ptr %0, align 2, !tbaa !4
  switch i16 %2, label %6 [
    i16 2, label %7
    i16 10, label %3
    i16 1, label %4
    i16 40, label %5
  ]

3:                                                ; preds = %1
  br label %7

4:                                                ; preds = %1
  br label %7

5:                                                ; preds = %1
  br label %7

6:                                                ; preds = %1
  br label %7

7:                                                ; preds = %1, %6, %5, %4, %3
  %.0 = phi ptr [ null, %6 ], [ @.str.13, %5 ], [ @.str.12, %4 ], [ @.str.16, %3 ], [ @.str.15, %1 ]
  ret ptr %.0
}